target datalayout = "e-m:e-p270:32:32-p271:32:32-p272:64:64-i64:64-i128:128-f80:128-n8:16:32:64-S128"
target triple = "x86_64-pc-linux-gnu"

@WalSegSz = dso_local global i32 0, align 4
@.str.19 = private unnamed_addr constant [22 x i8] c"SHOW wal_segment_size\00", align 1
@.str.20 = private unnamed_addr constant [44 x i8] c"could not send replication command \22%s\22: %s\00", align 1
@.str.21 = private unnamed_addr constant [100 x i8] c"could not fetch WAL segment size: got %d rows and %d fields, expected %d rows and %d or more fields\00", align 1
@.str.22 = private unnamed_addr constant [6 x i8] c"%d%2s\00", align 1
@.str.23 = private unnamed_addr constant [37 x i8] c"WAL segment size could not be parsed\00", align 1
@.str.24 = private unnamed_addr constant [3 x i8] c"MB\00", align 1
@.str.25 = private unnamed_addr constant [3 x i8] c"GB\00", align 1
@.str.26 = private unnamed_addr constant [58 x i8] c"remote server reported invalid WAL segment size (%d byte)\00", align 1
@.str.27 = private unnamed_addr constant [59 x i8] c"remote server reported invalid WAL segment size (%d bytes)\00", align 1
@.str.28 = private unnamed_addr constant [67 x i8] c"The WAL segment size must be a power of two between 1 MB and 1 GB.\00", align 1

; Function Attrs: nounwind uwtable
define dso_local zeroext i1 @RetrieveWalSegSize(ptr noundef %0) #0 {
  %2 = alloca i1, align 1
  %3 = alloca ptr, align 8
  %4 = alloca ptr, align 8
  %5 = alloca [3 x i8], align 1
  %6 = alloca i32, align 4
  %7 = alloca i32, align 4
  %8 = alloca i32, align 4
  store ptr %0, ptr %3, align 8
  call void @llvm.lifetime.start.p0(i64 8, ptr %4) #9
  call void @llvm.lifetime.start.p0(i64 3, ptr %5) #9
  call void @llvm.lifetime.start.p0(i64 4, ptr %6) #9
  call void @llvm.lifetime.start.p0(i64 4, ptr %7) #9
  store i32 1, ptr %7, align 4
  %9 = load ptr, ptr %3, align 8
  %10 = call i32 @PQserverVersion(ptr noundef %9)
  %11 = icmp slt i32 %10, 100000
  br i1 %11, label %12, label %13

12:                                               ; preds = %1
  store i32 16777216, ptr @WalSegSz, align 4
  store i1 true, ptr %2, align 1
  store i32 1, ptr %8, align 4
  br label %81

13:                                               ; preds = %1
  %14 = load ptr, ptr %3, align 8
  %15 = call ptr @PQexec(ptr noundef %14, ptr noundef @.str.19)
  store ptr %15, ptr %4, align 8
  %16 = load ptr, ptr %4, align 8
  %17 = call i32 @PQresultStatus(ptr noundef %16)
  %18 = icmp ne i32 %17, 2
  br i1 %18, label %19, label %23

19:                                               ; preds = %13
  %20 = load ptr, ptr %3, align 8
  %21 = call ptr @PQerrorMessage(ptr noundef %20)
  call void (i32, i32, ptr, ...) @pg_log_generic(i32 noundef 4, i32 noundef 0, ptr noundef @.str.20, ptr noundef @.str.19, ptr noundef %21)
  %22 = load ptr, ptr %4, align 8
  call void @PQclear(ptr noundef %22)
  store i1 false, ptr %2, align 1
  store i32 1, ptr %8, align 4
  br label %81

23:                                               ; preds = %13
  %24 = load ptr, ptr %4, align 8
  %25 = call i32 @PQntuples(ptr noundef %24)
  %26 = icmp ne i32 %25, 1
  br i1 %26, label %31, label %27

27:                                               ; preds = %23
  %28 = load ptr, ptr %4, align 8
  %29 = call i32 @PQnfields(ptr noundef %28)
  %30 = icmp slt i32 %29, 1
  br i1 %30, label %31, label %37

31:                                               ; preds = %27, %23
  %32 = load ptr, ptr %4, align 8
  %33 = call i32 @PQntuples(ptr noundef %32)
  %34 = load ptr, ptr %4, align 8
  %35 = call i32 @PQnfields(ptr noundef %34)
  call void (i32, i32, ptr, ...) @pg_log_generic(i32 noundef 4, i32 noundef 0, ptr noundef @.str.21, i32 noundef %33, i32 noundef %35, i32 noundef 1, i32 noundef 1)
  %36 = load ptr, ptr %4, align 8
  call void @PQclear(ptr noundef %36)
  store i1 false, ptr %2, align 1
  store i32 1, ptr %8, align 4
  br label %81

37:                                               ; preds = %27
  %38 = load ptr, ptr %4, align 8
  %39 = call ptr @PQgetvalue(ptr noundef %38, i32 noundef 0, i32 noundef 0)
  %40 = getelementptr inbounds [3 x i8], ptr %5, i64 0, i64 0
  %41 = call i32 (ptr, ptr, ...) @__isoc99_sscanf(ptr noundef %39, ptr noundef @.str.22, ptr noundef %6, ptr noundef %40) #9
  %42 = icmp ne i32 %41, 2
  br i1 %42, label %43, label %45

43:                                               ; preds = %37
  call void (i32, i32, ptr, ...) @pg_log_generic(i32 noundef 4, i32 noundef 0, ptr noundef @.str.23)
  %44 = load ptr, ptr %4, align 8
  call void @PQclear(ptr noundef %44)
  store i1 false, ptr %2, align 1
  store i32 1, ptr %8, align 4
  br label %81

45:                                               ; preds = %37
  %46 = load ptr, ptr %4, align 8
  call void @PQclear(ptr noundef %46)
  %47 = getelementptr inbounds [3 x i8], ptr %5, i64 0, i64 0
  %48 = call i32 @strcmp(ptr noundef %47, ptr noundef @.str.24) #11
  %49 = icmp eq i32 %48, 0
  br i1 %49, label %50, label %51

50:                                               ; preds = %45
  store i32 1048576, ptr %7, align 4
  br label %57

51:                                               ; preds = %45
  %52 = getelementptr inbounds [3 x i8], ptr %5, i64 0, i64 0
  %53 = call i32 @strcmp(ptr noundef %52, ptr noundef @.str.25) #11
  %54 = icmp eq i32 %53, 0
  br i1 %54, label %55, label %56

55:                                               ; preds = %51
  store i32 1073741824, ptr %7, align 4
  br label %56

56:                                               ; preds = %55, %51
  br label %57

57:                                               ; preds = %56, %50
  %58 = load i32, ptr %6, align 4
  %59 = load i32, ptr %7, align 4
  %60 = mul i32 %58, %59
  store i32 %60, ptr @WalSegSz, align 4
  %61 = load i32, ptr @WalSegSz, align 4
  %62 = icmp sgt i32 %61, 0
  br i1 %62, label %63, label %75

63:                                               ; preds = %57
  %64 = load i32, ptr @WalSegSz, align 4
  %65 = load i32, ptr @WalSegSz, align 4
  %66 = sub i32 %65, 1
  %67 = and i32 %64, %66
  %68 = icmp eq i32 %67, 0
  br i1 %68, label %69, label %75

69:                                               ; preds = %63
  %70 = load i32, ptr @WalSegSz, align 4
  %71 = icmp sge i32 %70, 1048576
  br i1 %71, label %72, label %75

72:                                               ; preds = %69
  %73 = load i32, ptr @WalSegSz, align 4
  %74 = icmp sle i32 %73, 1073741824
  br i1 %74, label %80, label %75

75:                                               ; preds = %72, %69, %63, %57
  %76 = load i32, ptr @WalSegSz, align 4
  %77 = icmp eq i32 %76, 1
  %78 = select i1 %77, ptr @.str.26, ptr @.str.27
  %79 = load i32, ptr @WalSegSz, align 4
  call void (i32, i32, ptr, ...) @pg_log_generic(i32 noundef 4, i32 noundef 0, ptr noundef %78, i32 noundef %79)
  call void (i32, i32, ptr, ...) @pg_log_generic(i32 noundef 4, i32 noundef 1, ptr noundef @.str.28)
  store i1 false, ptr %2, align 1
  store i32 1, ptr %8, align 4
  br label %81

80:                                               ; preds = %72
  store i1 true, ptr %2, align 1
  store i32 1, ptr %8, align 4
  br label %81

81:                                               ; preds = %80, %75, %43, %31, %19, %12
  call void @llvm.lifetime.end.p0(i64 4, ptr %7) #9
  call void @llvm.lifetime.end.p0(i64 4, ptr %6) #9
  call void @llvm.lifetime.end.p0(i64 3, ptr %5) #9
  call void @llvm.lifetime.end.p0(i64 8, ptr %4) #9
  %82 = load i1, ptr %2, align 1
  ret i1 %82
}