; Function Attrs: nounwind uwtable
define dso_local noundef zeroext i1 @RetrieveWalSegSize(ptr noundef %0) local_unnamed_addr #0 {
  %2 = alloca [3 x i8], align 1
  %3 = alloca i32, align 4
  call void @llvm.lifetime.start.p0(i64 3, ptr nonnull %2) #15
  call void @llvm.lifetime.start.p0(i64 4, ptr nonnull %3) #15
  %4 = tail call i32 @PQserverVersion(ptr noundef %0) #15
  %5 = icmp slt i32 %4, 100000
  br i1 %5, label %6, label %7

6:                                                ; preds = %1
  store i32 16777216, ptr @WalSegSz, align 4
  br label %40

7:                                                ; preds = %1
  %8 = tail call ptr @PQexec(ptr noundef %0, ptr noundef nonnull @.str.19) #15
  %9 = tail call i32 @PQresultStatus(ptr noundef %8) #15
  %.not = icmp eq i32 %9, 2
  br i1 %.not, label %12, label %10

10:                                               ; preds = %7
  %11 = tail call ptr @PQerrorMessage(ptr noundef %0) #15
  tail call void (i32, i32, ptr, ...) @pg_log_generic(i32 noundef 4, i32 noundef 0, ptr noundef nonnull @.str.20, ptr noundef nonnull @.str.19, ptr noundef %11) #15
  tail call void @PQclear(ptr noundef %8) #15
  br label %40

12:                                               ; preds = %7
  %13 = tail call i32 @PQntuples(ptr noundef %8) #15
  %.not19 = icmp eq i32 %13, 1
  br i1 %.not19, label %14, label %17

14:                                               ; preds = %12
  %15 = tail call i32 @PQnfields(ptr noundef %8) #15
  %16 = icmp slt i32 %15, 1
  br i1 %16, label %17, label %20

17:                                               ; preds = %14, %12
  %18 = tail call i32 @PQntuples(ptr noundef %8) #15
  %19 = tail call i32 @PQnfields(ptr noundef %8) #15
  tail call void (i32, i32, ptr, ...) @pg_log_generic(i32 noundef 4, i32 noundef 0, ptr noundef nonnull @.str.21, i32 noundef %18, i32 noundef %19, i32 noundef 1, i32 noundef 1) #15
  tail call void @PQclear(ptr noundef %8) #15
  br label %40

20:                                               ; preds = %14
  %21 = tail call ptr @PQgetvalue(ptr noundef %8, i32 noundef 0, i32 noundef 0) #15
  %22 = call i32 (ptr, ptr, ...) @__isoc99_sscanf(ptr noundef %21, ptr noundef nonnull @.str.22, ptr noundef nonnull %3, ptr noundef nonnull %2) #15
  %.not20 = icmp eq i32 %22, 2
  br i1 %.not20, label %24, label %23

23:                                               ; preds = %20
  call void (i32, i32, ptr, ...) @pg_log_generic(i32 noundef 4, i32 noundef 0, ptr noundef nonnull @.str.23) #15
  call void @PQclear(ptr noundef %8) #15
  br label %40

24:                                               ; preds = %20
  call void @PQclear(ptr noundef %8) #15
  %bcmp = call i32 @bcmp(ptr noundef nonnull dereferenceable(3) %2, ptr noundef nonnull dereferenceable(3) @.str.24, i64 3)
  %25 = icmp eq i32 %bcmp, 0
  br i1 %25, label %28, label %26

26:                                               ; preds = %24
  %bcmp21 = call i32 @bcmp(ptr noundef nonnull dereferenceable(3) %2, ptr noundef nonnull dereferenceable(3) @.str.25, i64 3)
  %27 = icmp eq i32 %bcmp21, 0
  %spec.select = select i1 %27, i32 1073741824, i32 1
  br label %28

28:                                               ; preds = %26, %24
  %.0 = phi i32 [ 1048576, %24 ], [ %spec.select, %26 ]
  %29 = load i32, ptr %3, align 4
  %30 = mul i32 %29, %.0
  store i32 %30, ptr @WalSegSz, align 4
  %31 = icmp sgt i32 %30, 0
  br i1 %31, label %32, label %37

32:                                               ; preds = %28
  %33 = call range(i32 1, 32) i32 @llvm.ctpop.i32(i32 %30)
  %34 = icmp samesign ult i32 %33, 2
  %35 = add nsw i32 %30, -1048576
  %36 = icmp ult i32 %35, 1072693249
  %or.cond3 = and i1 %34, %36
  br i1 %or.cond3, label %40, label %37

37:                                               ; preds = %32, %28
  %38 = icmp eq i32 %30, 1
  %39 = select i1 %38, ptr @.str.26, ptr @.str.27
  call void (i32, i32, ptr, ...) @pg_log_generic(i32 noundef 4, i32 noundef 0, ptr noundef nonnull %39, i32 noundef %30) #15
  call void (i32, i32, ptr, ...) @pg_log_generic(i32 noundef 4, i32 noundef 1, ptr noundef nonnull @.str.28) #15
  br label %40

40:                                               ; preds = %32, %37, %23, %17, %10, %6
  %.017 = phi i1 [ true, %6 ], [ false, %10 ], [ false, %17 ], [ false, %23 ], [ false, %37 ], [ true, %32 ]
  call void @llvm.lifetime.end.p0(i64 4, ptr nonnull %3) #15
  call void @llvm.lifetime.end.p0(i64 3, ptr nonnull %2) #15
  ret i1 %.017
}